target datalayout = "e-m:e-p270:32:32-p271:32:32-p272:64:64-i64:64-i128:128-f80:128-n8:16:32:64-S128"
target triple = "x86_64-pc-linux-gnu"

%struct.H5S_hyper_span_info_t = type { i32, ptr, ptr, [2 x %struct.H5S_hyper_op_info_t], ptr, ptr, [0 x i64] }
%struct.H5S_hyper_op_info_t = type { i64, %union.anon.1 }
%union.anon.1 = type { ptr }
%struct.H5S_hyper_span_t = type { i64, i64, ptr, ptr }

@H5S_init_g = external global i8, align 1
@H5_libterm_g = external global i8, align 1
@.str = private unnamed_addr constant [102 x i8] c"generated/home/dtcxzyw/WorkSpace/Projects/compilers/llvm-opt-benchmark/bench/hdf5/hdf5/src/H5Shyper.c\00", align 1
@H5E_DATASPACE_g = external global i64, align 8
@H5E_BADVALUE_g = external global i64, align 8
@H5E_CANTFREE_g = external global i64, align 8
@.str.13 = private unnamed_addr constant [25 x i8] c"unable to free span info\00", align 1
@H5_hbounds_t_arr_free_list = internal global { i8, [3 x i8], i32, i64, ptr, i32, [4 x i8], i64, i64, ptr } { i8 0, [3 x i8] zeroinitializer, i32 0, i64 0, ptr @.str.89, i32 65, [4 x i8] zeroinitializer, i64 72, i64 8, ptr null }, align 8
@H5_H5S_hyper_span_t_reg_free_list = internal global { i8, [3 x i8], i32, i32, [4 x i8], ptr, i64, ptr } { i8 0, [3 x i8] zeroinitializer, i32 0, i32 0, [4 x i8] zeroinitializer, ptr @.str.92, i64 32, ptr null }, align 8
@.str.96 = private unnamed_addr constant [20 x i8] c"unable to free span\00", align 1
@__func__.H5S__hyper_free_span = private unnamed_addr constant [21 x i8] c"H5S__hyper_free_span\00", align 1
@__func__.H5S__hyper_free_span_info = private unnamed_addr constant [26 x i8] c"H5S__hyper_free_span_info\00", align 1
@.str.97 = private unnamed_addr constant [27 x i8] c"span_info pointer was NULL\00", align 1

; Function Attrs: nounwind uwtable
define internal i32 @H5S__hyper_free_span(ptr noundef %0) #0 {
  %2 = alloca ptr, align 8
  %3 = alloca i32, align 4
  %4 = alloca i8, align 1
  store ptr %0, ptr %2, align 8, !tbaa !99
  call void @llvm.lifetime.start.p0(i64 4, ptr %3) #7
  store i32 0, ptr %3, align 4, !tbaa !10
  call void @llvm.lifetime.start.p0(i64 1, ptr %4) #7
  store i8 0, ptr %4, align 1, !tbaa !8
  %5 = load i8, ptr @H5S_init_g, align 1, !tbaa !8, !range !12, !noundef !13
  %6 = trunc i8 %5 to i1
  br i1 %6, label %11, label %7

7:                                                ; preds = %1
  %8 = load i8, ptr @H5_libterm_g, align 1, !tbaa !8, !range !12, !noundef !13
  %9 = trunc i8 %8 to i1
  %10 = xor i1 %9, true
  br label %11

11:                                               ; preds = %7, %1
  %12 = phi i1 [ true, %1 ], [ %10, %7 ]
  %13 = xor i1 %12, true
  %14 = xor i1 %13, true
  %15 = zext i1 %14 to i32
  %16 = sext i32 %15 to i64
  %17 = call i64 @llvm.expect.i64(i64 %16, i64 1)
  %18 = icmp ne i64 %17, 0
  br i1 %18, label %19, label %54

19:                                               ; preds = %11
  %20 = load ptr, ptr %2, align 8, !tbaa !99
  %21 = getelementptr inbounds nuw %struct.H5S_hyper_span_t, ptr %20, i32 0, i32 2
  %22 = load ptr, ptr %21, align 8, !tbaa !103
  %23 = icmp ne ptr %22, null
  br i1 %23, label %24, label %50

24:                                               ; preds = %19
  %25 = load ptr, ptr %2, align 8, !tbaa !99
  %26 = getelementptr inbounds nuw %struct.H5S_hyper_span_t, ptr %25, i32 0, i32 2
  %27 = load ptr, ptr %26, align 8, !tbaa !103
  %28 = call i32 @H5S__hyper_free_span_info(ptr noundef %27)
  %29 = icmp slt i32 %28, 0
  br i1 %29, label %30, label %49

30:                                               ; preds = %24
  br label %31

31:                                               ; preds = %30
  br label %32

32:                                               ; preds = %31
  br label %33

33:                                               ; preds = %32
  %34 = load i64, ptr @H5E_DATASPACE_g, align 8, !tbaa !15
  %35 = load i64, ptr @H5E_CANTFREE_g, align 8, !tbaa !15
  %36 = call i32 (ptr, ptr, i32, i64, i64, ptr, ...) @H5E_printf_stack(ptr noundef @.str, ptr noundef @__func__.H5S__hyper_free_span, i32 noundef 3170, i64 noundef %34, i64 noundef %35, ptr noundef @.str.13)
  br label %37

37:                                               ; preds = %33
  br label %38

38:                                               ; preds = %37
  store i8 1, ptr %4, align 1, !tbaa !8
  %39 = load i8, ptr %4, align 1, !tbaa !8, !range !12, !noundef !13
  %40 = trunc i8 %39 to i1
  %41 = zext i1 %40 to i8
  store i8 %41, ptr %4, align 1, !tbaa !8
  br label %42

42:                                               ; preds = %38
  br label %43

43:                                               ; preds = %42
  br label %44

44:                                               ; preds = %43
  store i32 -1, ptr %3, align 4, !tbaa !10
  br label %53

45:                                               ; No predecessors!
  br label %46

46:                                               ; preds = %45
  br label %47

47:                                               ; preds = %46
  br label %48

48:                                               ; preds = %47
  br label %49

49:                                               ; preds = %48, %24
  br label %50

50:                                               ; preds = %49, %19
  %51 = load ptr, ptr %2, align 8, !tbaa !99
  %52 = call ptr @H5FL_reg_free(ptr noundef @H5_H5S_hyper_span_t_reg_free_list, ptr noundef %51)
  store ptr %52, ptr %2, align 8, !tbaa !99
  br label %53

53:                                               ; preds = %50, %44
  br label %54

54:                                               ; preds = %53, %11
  %55 = load i32, ptr %3, align 4, !tbaa !10
  call void @llvm.lifetime.end.p0(i64 1, ptr %4) #7
  call void @llvm.lifetime.end.p0(i64 4, ptr %3) #7
  ret i32 %55
}

; Function Attrs: nounwind uwtable
define internal i32 @H5S__hyper_free_span_info(ptr noundef %0) #0 {
  %2 = alloca i32, align 4
  %3 = alloca ptr, align 8
  %4 = alloca i32, align 4
  %5 = alloca i8, align 1
  %6 = alloca ptr, align 8
  %7 = alloca ptr, align 8
  %8 = alloca i32, align 4
  store ptr %0, ptr %3, align 8, !tbaa !107
  call void @llvm.lifetime.start.p0(i64 4, ptr %4) #7
  store i32 0, ptr %4, align 4, !tbaa !10
  call void @llvm.lifetime.start.p0(i64 1, ptr %5) #7
  store i8 0, ptr %5, align 1, !tbaa !8
  %9 = load i8, ptr @H5S_init_g, align 1, !tbaa !8, !range !12, !noundef !13
  %10 = trunc i8 %9 to i1
  br i1 %10, label %15, label %11

11:                                               ; preds = %1
  %12 = load i8, ptr @H5_libterm_g, align 1, !tbaa !8, !range !12, !noundef !13
  %13 = trunc i8 %12 to i1
  %14 = xor i1 %13, true
  br label %15

15:                                               ; preds = %11, %1
  %16 = phi i1 [ true, %1 ], [ %14, %11 ]
  %17 = xor i1 %16, true
  %18 = xor i1 %17, true
  %19 = zext i1 %18 to i32
  %20 = sext i32 %19 to i64
  %21 = call i64 @llvm.expect.i64(i64 %20, i64 1)
  %22 = icmp ne i64 %21, 0
  br i1 %22, label %23, label %100

23:                                               ; preds = %15
  %24 = load ptr, ptr %3, align 8, !tbaa !107
  %25 = icmp ne ptr %24, null
  br i1 %25, label %45, label %26

26:                                               ; preds = %23
  br label %27

27:                                               ; preds = %26
  br label %28

28:                                               ; preds = %27
  br label %29

29:                                               ; preds = %28
  %30 = load i64, ptr @H5E_DATASPACE_g, align 8, !tbaa !15
  %31 = load i64, ptr @H5E_BADVALUE_g, align 8, !tbaa !15
  %32 = call i32 (ptr, ptr, i32, i64, i64, ptr, ...) @H5E_printf_stack(ptr noundef @.str, ptr noundef @__func__.H5S__hyper_free_span_info, i32 noundef 3105, i64 noundef %30, i64 noundef %31, ptr noundef @.str.97)
  br label %33

33:                                               ; preds = %29
  br label %34

34:                                               ; preds = %33
  store i8 1, ptr %5, align 1, !tbaa !8
  %35 = load i8, ptr %5, align 1, !tbaa !8, !range !12, !noundef !13
  %36 = trunc i8 %35 to i1
  %37 = zext i1 %36 to i8
  store i8 %37, ptr %5, align 1, !tbaa !8
  br label %38

38:                                               ; preds = %34
  br label %39

39:                                               ; preds = %38
  br label %40

40:                                               ; preds = %39
  store i32 -1, ptr %4, align 4, !tbaa !10
  br label %99

41:                                               ; No predecessors!
  br label %42

42:                                               ; preds = %41
  br label %43

43:                                               ; preds = %42
  br label %44

44:                                               ; preds = %43
  br label %45

45:                                               ; preds = %44, %23
  %46 = load ptr, ptr %3, align 8, !tbaa !107
  %47 = getelementptr inbounds nuw %struct.H5S_hyper_span_info_t, ptr %46, i32 0, i32 0
  %48 = load i32, ptr %47, align 8, !tbaa !10
  %49 = add i32 %48, -1
  store i32 %49, ptr %47, align 8, !tbaa !10
  %50 = load ptr, ptr %3, align 8, !tbaa !107
  %51 = getelementptr inbounds nuw %struct.H5S_hyper_span_info_t, ptr %50, i32 0, i32 0
  %52 = load i32, ptr %51, align 8, !tbaa !10
  %53 = icmp eq i32 %52, 0
  br i1 %53, label %54, label %98

54:                                               ; preds = %45
  call void @llvm.lifetime.start.p0(i64 8, ptr %6) #7
  %55 = load ptr, ptr %3, align 8, !tbaa !107
  %56 = getelementptr inbounds nuw %struct.H5S_hyper_span_info_t, ptr %55, i32 0, i32 4
  %57 = load ptr, ptr %56, align 8, !tbaa !99
  store ptr %57, ptr %6, align 8, !tbaa !99
  br label %58

58:                                               ; preds = %91, %54
  %59 = load ptr, ptr %6, align 8, !tbaa !99
  %60 = icmp ne ptr %59, null
  br i1 %60, label %61, label %92

61:                                               ; preds = %58
  call void @llvm.lifetime.start.p0(i64 8, ptr %7) #7
  %62 = load ptr, ptr %6, align 8, !tbaa !99
  %63 = getelementptr inbounds nuw %struct.H5S_hyper_span_t, ptr %62, i32 0, i32 3
  %64 = load ptr, ptr %63, align 8, !tbaa !108
  store ptr %64, ptr %7, align 8, !tbaa !99
  %65 = load ptr, ptr %6, align 8, !tbaa !99
  %66 = call i32 @H5S__hyper_free_span(ptr noundef %65)
  %67 = icmp slt i32 %66, 0
  br i1 %67, label %68, label %87

68:                                               ; preds = %61
  br label %69

69:                                               ; preds = %68
  br label %70

70:                                               ; preds = %69
  br label %71

71:                                               ; preds = %70
  %72 = load i64, ptr @H5E_DATASPACE_g, align 8, !tbaa !15
  %73 = load i64, ptr @H5E_CANTFREE_g, align 8, !tbaa !15
  %74 = call i32 (ptr, ptr, i32, i64, i64, ptr, ...) @H5E_printf_stack(ptr noundef @.str, ptr noundef @__func__.H5S__hyper_free_span_info, i32 noundef 3124, i64 noundef %72, i64 noundef %73, ptr noundef @.str.96)
  br label %75

75:                                               ; preds = %71
  br label %76

76:                                               ; preds = %75
  store i8 1, ptr %5, align 1, !tbaa !8
  %77 = load i8, ptr %5, align 1, !tbaa !8, !range !12, !noundef !13
  %78 = trunc i8 %77 to i1
  %79 = zext i1 %78 to i8
  store i8 %79, ptr %5, align 1, !tbaa !8
  br label %80

80:                                               ; preds = %76
  br label %81

81:                                               ; preds = %80
  br label %82

82:                                               ; preds = %81
  store i32 -1, ptr %4, align 4, !tbaa !10
  store i32 10, ptr %8, align 4
  br label %89

83:                                               ; No predecessors!
  br label %84

84:                                               ; preds = %83
  br label %85

85:                                               ; preds = %84
  br label %86

86:                                               ; preds = %85
  br label %87

87:                                               ; preds = %86, %61
  %88 = load ptr, ptr %7, align 8, !tbaa !99
  store ptr %88, ptr %6, align 8, !tbaa !99
  store i32 0, ptr %8, align 4
  br label %89

89:                                               ; preds = %82, %87
  call void @llvm.lifetime.end.p0(i64 8, ptr %7) #7
  %90 = load i32, ptr %8, align 4
  switch i32 %90, label %95 [
    i32 0, label %91
  ]

91:                                               ; preds = %89
  br label %58, !llvm.loop !157

92:                                               ; preds = %58
  %93 = load ptr, ptr %3, align 8, !tbaa !107
  %94 = call ptr @H5FL_arr_free(ptr noundef @H5_hbounds_t_arr_free_list, ptr noundef %93)
  store ptr %94, ptr %3, align 8, !tbaa !107
  store i32 0, ptr %8, align 4
  br label %95

95:                                               ; preds = %92, %89
  call void @llvm.lifetime.end.p0(i64 8, ptr %6) #7
  %96 = load i32, ptr %8, align 4
  switch i32 %96, label %102 [
    i32 0, label %97
    i32 10, label %99
  ]

97:                                               ; preds = %95
  br label %98

98:                                               ; preds = %97, %45
  br label %99

99:                                               ; preds = %98, %95, %40
  br label %100

100:                                              ; preds = %99, %15
  %101 = load i32, ptr %4, align 4, !tbaa !10
  store i32 %101, ptr %2, align 4
  store i32 1, ptr %8, align 4
  br label %102

102:                                              ; preds = %100, %95
  call void @llvm.lifetime.end.p0(i64 1, ptr %5) #7
  call void @llvm.lifetime.end.p0(i64 4, ptr %4) #7
  %103 = load i32, ptr %2, align 4
  ret i32 %103
}