; Function Attrs: nounwind uwtable
define internal fastcc range(i32 -1, 1) i32 @H5S__hyper_free_span_info(ptr noundef %0) unnamed_addr #0 {
  %2 = load i8, ptr @H5S_init_g, align 1, !tbaa !3, !range !7, !noundef !8
  %3 = trunc nuw i8 %2 to i1
  %4 = load i8, ptr @H5_libterm_g, align 1, !range !7
  %5 = trunc nuw i8 %4 to i1
  %6 = xor i1 %5, true
  %7 = select i1 %3, i1 true, i1 %6
  br i1 %7, label %8, label %46, !prof !9

8:                                                ; preds = %1
  %.not = icmp eq ptr %0, null
  br i1 %.not, label %9, label %13

9:                                                ; preds = %8
  %10 = load i64, ptr @H5E_DATASPACE_g, align 8, !tbaa !11
  %11 = load i64, ptr @H5E_BADVALUE_g, align 8, !tbaa !11
  %12 = tail call i32 (ptr, ptr, i32, i64, i64, ptr, ...) @H5E_printf_stack(ptr noundef nonnull @.str, ptr noundef nonnull @__func__.H5S__hyper_free_span_info, i32 noundef 3105, i64 noundef %10, i64 noundef %11, ptr noundef nonnull @.str.97) #14
  br label %46

13:                                               ; preds = %8
  %14 = load i32, ptr %0, align 8, !tbaa !20
  %15 = add i32 %14, -1
  store i32 %15, ptr %0, align 8, !tbaa !20
  %16 = icmp eq i32 %15, 0
  br i1 %16, label %17, label %46

17:                                               ; preds = %13
  %18 = getelementptr inbounds nuw i8, ptr %0, i64 56
  %19 = load ptr, ptr %18, align 8, !tbaa !88
  %.not2024 = icmp eq ptr %19, null
  br i1 %.not2024, label %._crit_edge, label %.lr.ph.preheader

.lr.ph.preheader:                                 ; preds = %17
  %.pre28 = load i8, ptr @H5_libterm_g, align 1, !range !7
  br label %.lr.ph

.lr.ph:                                           ; preds = %.lr.ph.preheader, %42
  %20 = phi i8 [ %43, %42 ], [ %.pre28, %.lr.ph.preheader ]
  %21 = phi i8 [ %44, %42 ], [ %2, %.lr.ph.preheader ]
  %.01525 = phi ptr [ %23, %42 ], [ %19, %.lr.ph.preheader ]
  %22 = getelementptr inbounds nuw i8, ptr %.01525, i64 24
  %23 = load ptr, ptr %22, align 8, !tbaa !96
  %24 = trunc nuw i8 %21 to i1
  %25 = trunc nuw i8 %20 to i1
  %26 = xor i1 %25, true
  %27 = select i1 %24, i1 true, i1 %26
  br i1 %27, label %28, label %42, !prof !9

28:                                               ; preds = %.lr.ph
  %29 = getelementptr inbounds nuw i8, ptr %.01525, i64 16
  %30 = load ptr, ptr %29, align 8, !tbaa !92
  %.not.i = icmp eq ptr %30, null
  br i1 %.not.i, label %34, label %31

31:                                               ; preds = %28
  %32 = tail call fastcc i32 @H5S__hyper_free_span_info(ptr noundef nonnull %30)
  %33 = icmp slt i32 %32, 0
  br i1 %33, label %.thread, label %34

34:                                               ; preds = %31, %28
  %35 = tail call ptr @H5FL_reg_free(ptr noundef nonnull @H5_H5S_hyper_span_t_reg_free_list, ptr noundef nonnull %.01525) #14
  %.pre = load i8, ptr @H5S_init_g, align 1, !tbaa !3, !range !7
  %.pre27 = load i8, ptr @H5_libterm_g, align 1, !range !7
  br label %42

.thread:                                          ; preds = %31
  %36 = load i64, ptr @H5E_DATASPACE_g, align 8, !tbaa !11
  %37 = load i64, ptr @H5E_CANTFREE_g, align 8, !tbaa !11
  %38 = tail call i32 (ptr, ptr, i32, i64, i64, ptr, ...) @H5E_printf_stack(ptr noundef nonnull @.str, ptr noundef nonnull @__func__.H5S__hyper_free_span, i32 noundef 3170, i64 noundef %36, i64 noundef %37, ptr noundef nonnull @.str.13) #14
  %39 = load i64, ptr @H5E_DATASPACE_g, align 8, !tbaa !11
  %40 = load i64, ptr @H5E_CANTFREE_g, align 8, !tbaa !11
  %41 = tail call i32 (ptr, ptr, i32, i64, i64, ptr, ...) @H5E_printf_stack(ptr noundef nonnull @.str, ptr noundef nonnull @__func__.H5S__hyper_free_span_info, i32 noundef 3124, i64 noundef %39, i64 noundef %40, ptr noundef nonnull @.str.96) #14
  br label %46

42:                                               ; preds = %34, %.lr.ph
  %43 = phi i8 [ %.pre27, %34 ], [ 1, %.lr.ph ]
  %44 = phi i8 [ %.pre, %34 ], [ 0, %.lr.ph ]
  %.not20 = icmp eq ptr %23, null
  br i1 %.not20, label %._crit_edge, label %.lr.ph, !llvm.loop !149

._crit_edge:                                      ; preds = %42, %17
  %45 = tail call ptr @H5FL_arr_free(ptr noundef nonnull @H5_hbounds_t_arr_free_list, ptr noundef nonnull %0) #14
  br label %46

46:                                               ; preds = %.thread, %._crit_edge, %1, %13, %9
  %.014 = phi i32 [ 0, %13 ], [ -1, %9 ], [ 0, %1 ], [ 0, %._crit_edge ], [ -1, %.thread ]
  ret i32 %.014
}